target datalayout = "e-m:e-p270:32:32-p271:32:32-p272:64:64-i64:64-i128:128-f80:128-n8:16:32:64-S128"
target triple = "x86_64-pc-linux-gnu"

@.str.26 = private unnamed_addr constant [28 x i8] c"buffer access out of bounds\00", align 1

; Function Attrs: mustprogress uwtable
define internal noundef i32 @_ZL18buffer_readintegerIhEiP9lua_State(ptr noundef %0) #0 {
  %2 = alloca ptr, align 8
  %3 = alloca i64, align 8
  %4 = alloca ptr, align 8
  %5 = alloca i32, align 4
  %6 = alloca i8, align 1
  store ptr %0, ptr %2, align 8
  store i64 0, ptr %3, align 8
  %7 = load ptr, ptr %2, align 8
  %8 = call noundef ptr @_Z16luaL_checkbufferP9lua_StateiPm(ptr noundef %7, i32 noundef 1, ptr noundef %3)
  store ptr %8, ptr %4, align 8
  %9 = load ptr, ptr %2, align 8
  %10 = call noundef i32 @_Z17luaL_checkintegerP9lua_Statei(ptr noundef %9, i32 noundef 2)
  store i32 %10, ptr %5, align 4
  %11 = load i32, ptr %5, align 4
  %12 = zext i32 %11 to i64
  %13 = add i64 %12, 1
  %14 = load i64, ptr %3, align 8
  %15 = icmp ugt i64 %13, %14
  br i1 %15, label %16, label %18

16:                                               ; preds = %1
  %17 = load ptr, ptr %2, align 8
  call void (ptr, ptr, ...) @_Z11luaL_errorLP9lua_StatePKcz(ptr noundef %17, ptr noundef @.str.26) #5
  unreachable

18:                                               ; preds = %1
  %19 = load ptr, ptr %4, align 8
  %20 = load i32, ptr %5, align 4
  %21 = sext i32 %20 to i64
  %22 = getelementptr inbounds i8, ptr %19, i64 %21
  call void @llvm.memcpy.p0.p0.i64(ptr align 1 %6, ptr align 1 %22, i64 1, i1 false)
  %23 = load ptr, ptr %2, align 8
  %24 = load i8, ptr %6, align 1
  %25 = uitofp i8 %24 to double
  call void @_Z14lua_pushnumberP9lua_Stated(ptr noundef %23, double noundef %25)
  ret i32 1
}